target datalayout = "e-m:e-p270:32:32-p271:32:32-p272:64:64-i64:64-i128:128-f80:128-n8:16:32:64-S128"
target triple = "x86_64-unknown-linux-gnu"

%"class.icu_75::RegexPattern" = type { %"class.icu_75::UObject", ptr, ptr, i32, ptr, %"class.icu_75::UnicodeString", ptr, ptr, i32, i32, i32, i32, ptr, i32, i32, i32, ptr, i32, ptr, i8, ptr }
%"class.icu_75::UObject" = type { ptr }
%"class.icu_75::UnicodeString" = type { %"class.icu_75::Replaceable", %"union.icu_75::UnicodeString::StackBufferOrFields" }
%"class.icu_75::Replaceable" = type { %"class.icu_75::UObject" }
%"union.icu_75::UnicodeString::StackBufferOrFields" = type { %struct.anon.0, [32 x i8] }
%struct.anon.0 = type { i16, i32, i32, ptr }
%"class.icu_75::UVector" = type { %"class.icu_75::UObject", i32, i32, ptr, ptr, ptr }

; Function Attrs: mustprogress nounwind uwtable
define linkonce_odr noundef i32 @_ZNK6icu_757UVector4sizeEv(ptr noundef nonnull align 8 dereferenceable(40) %this) #0 comdat align 2 {
entry:
  %this.addr = alloca ptr, align 8
  store ptr %this, ptr %this.addr, align 8
  %this1 = load ptr, ptr %this.addr, align 8
  %count = getelementptr inbounds %"class.icu_75::UVector", ptr %this1, i32 0, i32 1
  %0 = load i32, ptr %count, align 8
  ret i32 %0
}

; Function Attrs: mustprogress uwtable
define void @_ZN6icu_7512RegexPattern3zapEv(ptr noundef nonnull align 8 dereferenceable(200) %this) #1 align 2 {
entry:
  %this.addr = alloca ptr, align 8
  %i = alloca i32, align 4
  %s = alloca ptr, align 8
  store ptr %this, ptr %this.addr, align 8
  %this1 = load ptr, ptr %this.addr, align 8
  %fCompiledPat = getelementptr inbounds %"class.icu_75::RegexPattern", ptr %this1, i32 0, i32 4
  %0 = load ptr, ptr %fCompiledPat, align 8
  %isnull = icmp eq ptr %0, null
  br i1 %isnull, label %delete.end, label %delete.notnull

delete.notnull:                                   ; preds = %entry
  %vtable = load ptr, ptr %0, align 8
  %vfn = getelementptr inbounds ptr, ptr %vtable, i64 1
  %1 = load ptr, ptr %vfn, align 8
  call void %1(ptr noundef nonnull align 8 dereferenceable(32) %0) #9
  br label %delete.end

delete.end:                                       ; preds = %delete.notnull, %entry
  %fCompiledPat2 = getelementptr inbounds %"class.icu_75::RegexPattern", ptr %this1, i32 0, i32 4
  store ptr null, ptr %fCompiledPat2, align 8
  store i32 1, ptr %i, align 4
  br label %for.cond

for.cond:                                         ; preds = %for.inc, %delete.end
  %2 = load i32, ptr %i, align 4
  %fSets = getelementptr inbounds %"class.icu_75::RegexPattern", ptr %this1, i32 0, i32 6
  %3 = load ptr, ptr %fSets, align 8
  %call = call noundef i32 @_ZNK6icu_757UVector4sizeEv(ptr noundef nonnull align 8 dereferenceable(40) %3)
  %cmp = icmp slt i32 %2, %call
  br i1 %cmp, label %for.body, label %for.end

for.body:                                         ; preds = %for.cond
  %fSets3 = getelementptr inbounds %"class.icu_75::RegexPattern", ptr %this1, i32 0, i32 6
  %4 = load ptr, ptr %fSets3, align 8
  %5 = load i32, ptr %i, align 4
  %call4 = call noundef ptr @_ZNK6icu_757UVector9elementAtEi(ptr noundef nonnull align 8 dereferenceable(40) %4, i32 noundef %5)
  store ptr %call4, ptr %s, align 8
  %6 = load ptr, ptr %s, align 8
  %cmp5 = icmp ne ptr %6, null
  br i1 %cmp5, label %if.then, label %if.end

if.then:                                          ; preds = %for.body
  %7 = load ptr, ptr %s, align 8
  %isnull6 = icmp eq ptr %7, null
  br i1 %isnull6, label %delete.end8, label %delete.notnull7

delete.notnull7:                                  ; preds = %if.then
  call void @_ZN6icu_7510UnicodeSetD1Ev(ptr noundef nonnull align 8 dereferenceable(200) %7) #9
  call void @_ZN6icu_757UMemorydlEPv(ptr noundef %7) #9
  br label %delete.end8

delete.end8:                                      ; preds = %delete.notnull7, %if.then
  br label %if.end

if.end:                                           ; preds = %delete.end8, %for.body
  br label %for.inc

for.inc:                                          ; preds = %if.end
  %8 = load i32, ptr %i, align 4
  %inc = add nsw i32 %8, 1
  store i32 %inc, ptr %i, align 4
  br label %for.cond, !llvm.loop !7

for.end:                                          ; preds = %for.cond
  %fSets9 = getelementptr inbounds %"class.icu_75::RegexPattern", ptr %this1, i32 0, i32 6
  %9 = load ptr, ptr %fSets9, align 8
  %isnull10 = icmp eq ptr %9, null
  br i1 %isnull10, label %delete.end14, label %delete.notnull11

delete.notnull11:                                 ; preds = %for.end
  %vtable12 = load ptr, ptr %9, align 8
  %vfn13 = getelementptr inbounds ptr, ptr %vtable12, i64 1
  %10 = load ptr, ptr %vfn13, align 8
  call void %10(ptr noundef nonnull align 8 dereferenceable(40) %9) #9
  br label %delete.end14

delete.end14:                                     ; preds = %delete.notnull11, %for.end
  %fSets15 = getelementptr inbounds %"class.icu_75::RegexPattern", ptr %this1, i32 0, i32 6
  store ptr null, ptr %fSets15, align 8
  %fSets8 = getelementptr inbounds %"class.icu_75::RegexPattern", ptr %this1, i32 0, i32 7
  %11 = load ptr, ptr %fSets8, align 8
  %isnull16 = icmp eq ptr %11, null
  br i1 %isnull16, label %delete.end18, label %delete.notnull17

delete.notnull17:                                 ; preds = %delete.end14
  call void @_ZN6icu_757UMemorydaEPv(ptr noundef %11) #9
  br label %delete.end18

delete.end18:                                     ; preds = %delete.notnull17, %delete.end14
  %fSets819 = getelementptr inbounds %"class.icu_75::RegexPattern", ptr %this1, i32 0, i32 7
  store ptr null, ptr %fSets819, align 8
  %fGroupMap = getelementptr inbounds %"class.icu_75::RegexPattern", ptr %this1, i32 0, i32 12
  %12 = load ptr, ptr %fGroupMap, align 8
  %isnull20 = icmp eq ptr %12, null
  br i1 %isnull20, label %delete.end24, label %delete.notnull21

delete.notnull21:                                 ; preds = %delete.end18
  %vtable22 = load ptr, ptr %12, align 8
  %vfn23 = getelementptr inbounds ptr, ptr %vtable22, i64 1
  %13 = load ptr, ptr %vfn23, align 8
  call void %13(ptr noundef nonnull align 8 dereferenceable(32) %12) #9
  br label %delete.end24

delete.end24:                                     ; preds = %delete.notnull21, %delete.end18
  %fGroupMap25 = getelementptr inbounds %"class.icu_75::RegexPattern", ptr %this1, i32 0, i32 12
  store ptr null, ptr %fGroupMap25, align 8
  %fInitialChars = getelementptr inbounds %"class.icu_75::RegexPattern", ptr %this1, i32 0, i32 16
  %14 = load ptr, ptr %fInitialChars, align 8
  %isnull26 = icmp eq ptr %14, null
  br i1 %isnull26, label %delete.end28, label %delete.notnull27

delete.notnull27:                                 ; preds = %delete.end24
  call void @_ZN6icu_7510UnicodeSetD1Ev(ptr noundef nonnull align 8 dereferenceable(200) %14) #9
  call void @_ZN6icu_757UMemorydlEPv(ptr noundef %14) #9
  br label %delete.end28

delete.end28:                                     ; preds = %delete.notnull27, %delete.end24
  %fInitialChars29 = getelementptr inbounds %"class.icu_75::RegexPattern", ptr %this1, i32 0, i32 16
  store ptr null, ptr %fInitialChars29, align 8
  %fInitialChars8 = getelementptr inbounds %"class.icu_75::RegexPattern", ptr %this1, i32 0, i32 18
  %15 = load ptr, ptr %fInitialChars8, align 8
  %isnull30 = icmp eq ptr %15, null
  br i1 %isnull30, label %delete.end32, label %delete.notnull31

delete.notnull31:                                 ; preds = %delete.end28
  call void @_ZN6icu_757UMemorydlEPv(ptr noundef %15) #9
  br label %delete.end32

delete.end32:                                     ; preds = %delete.notnull31, %delete.end28
  %fInitialChars833 = getelementptr inbounds %"class.icu_75::RegexPattern", ptr %this1, i32 0, i32 18
  store ptr null, ptr %fInitialChars833, align 8
  %fPattern = getelementptr inbounds %"class.icu_75::RegexPattern", ptr %this1, i32 0, i32 1
  %16 = load ptr, ptr %fPattern, align 8
  %cmp34 = icmp ne ptr %16, null
  br i1 %cmp34, label %if.then35, label %if.end39

if.then35:                                        ; preds = %delete.end32
  %fPattern36 = getelementptr inbounds %"class.icu_75::RegexPattern", ptr %this1, i32 0, i32 1
  %17 = load ptr, ptr %fPattern36, align 8
  %call37 = call ptr @utext_close_75(ptr noundef %17)
  %fPattern38 = getelementptr inbounds %"class.icu_75::RegexPattern", ptr %this1, i32 0, i32 1
  store ptr null, ptr %fPattern38, align 8
  br label %if.end39

if.end39:                                         ; preds = %if.then35, %delete.end32
  %fPatternString = getelementptr inbounds %"class.icu_75::RegexPattern", ptr %this1, i32 0, i32 2
  %18 = load ptr, ptr %fPatternString, align 8
  %cmp40 = icmp ne ptr %18, null
  br i1 %cmp40, label %if.then41, label %if.end49

if.then41:                                        ; preds = %if.end39
  %fPatternString42 = getelementptr inbounds %"class.icu_75::RegexPattern", ptr %this1, i32 0, i32 2
  %19 = load ptr, ptr %fPatternString42, align 8
  %isnull43 = icmp eq ptr %19, null
  br i1 %isnull43, label %delete.end47, label %delete.notnull44

delete.notnull44:                                 ; preds = %if.then41
  %vtable45 = load ptr, ptr %19, align 8
  %vfn46 = getelementptr inbounds ptr, ptr %vtable45, i64 1
  %20 = load ptr, ptr %vfn46, align 8
  call void %20(ptr noundef nonnull align 8 dereferenceable(64) %19) #9
  br label %delete.end47

delete.end47:                                     ; preds = %delete.notnull44, %if.then41
  %fPatternString48 = getelementptr inbounds %"class.icu_75::RegexPattern", ptr %this1, i32 0, i32 2
  store ptr null, ptr %fPatternString48, align 8
  br label %if.end49

if.end49:                                         ; preds = %delete.end47, %if.end39
  %fNamedCaptureMap = getelementptr inbounds %"class.icu_75::RegexPattern", ptr %this1, i32 0, i32 20
  %21 = load ptr, ptr %fNamedCaptureMap, align 8
  %cmp50 = icmp ne ptr %21, null
  br i1 %cmp50, label %if.then51, label %if.end54

if.then51:                                        ; preds = %if.end49
  %fNamedCaptureMap52 = getelementptr inbounds %"class.icu_75::RegexPattern", ptr %this1, i32 0, i32 20
  %22 = load ptr, ptr %fNamedCaptureMap52, align 8
  call void @uhash_close_75(ptr noundef %22)
  %fNamedCaptureMap53 = getelementptr inbounds %"class.icu_75::RegexPattern", ptr %this1, i32 0, i32 20
  store ptr null, ptr %fNamedCaptureMap53, align 8
  br label %if.end54

if.end54:                                         ; preds = %if.then51, %if.end49
  ret void
}