; Function Attrs: mustprogress uwtable
define void @_ZN6icu_7512RegexPattern3zapEv(ptr nocapture noundef nonnull align 8 dereferenceable(200) %this) local_unnamed_addr #1 align 2 {
entry:
  %fCompiledPat = getelementptr inbounds i8, ptr %this, i64 32
  %0 = load ptr, ptr %fCompiledPat, align 8
  %isnull = icmp eq ptr %0, null
  br i1 %isnull, label %delete.end, label %delete.notnull

delete.notnull:                                   ; preds = %entry
  %vtable = load ptr, ptr %0, align 8
  %vfn = getelementptr inbounds i8, ptr %vtable, i64 8
  %1 = load ptr, ptr %vfn, align 8
  tail call void %1(ptr noundef nonnull align 8 dereferenceable(32) %0) #11
  br label %delete.end

delete.end:                                       ; preds = %delete.notnull, %entry
  store ptr null, ptr %fCompiledPat, align 8
  %fSets = getelementptr inbounds i8, ptr %this, i64 104
  %2 = load ptr, ptr %fSets, align 8
  %count.i12 = getelementptr inbounds i8, ptr %2, i64 8
  %3 = load i32, ptr %count.i12, align 8
  %cmp13 = icmp sgt i32 %3, 1
  br i1 %cmp13, label %for.body, label %delete.end14

for.body:                                         ; preds = %delete.end, %for.inc
  %4 = phi ptr [ %5, %for.inc ], [ %2, %delete.end ]
  %i.014 = phi i32 [ %inc, %for.inc ], [ 1, %delete.end ]
  %call4 = tail call noundef ptr @_ZNK6icu_757UVector9elementAtEi(ptr noundef nonnull align 8 dereferenceable(40) %4, i32 noundef %i.014)
  %cmp5.not = icmp eq ptr %call4, null
  br i1 %cmp5.not, label %for.inc, label %delete.notnull7

delete.notnull7:                                  ; preds = %for.body
  tail call void @_ZN6icu_7510UnicodeSetD1Ev(ptr noundef nonnull align 8 dereferenceable(200) %call4) #11
  tail call void @_ZN6icu_757UMemorydlEPv(ptr noundef nonnull %call4) #11
  br label %for.inc

for.inc:                                          ; preds = %for.body, %delete.notnull7
  %inc = add nuw nsw i32 %i.014, 1
  %5 = load ptr, ptr %fSets, align 8
  %count.i = getelementptr inbounds i8, ptr %5, i64 8
  %6 = load i32, ptr %count.i, align 8
  %cmp = icmp slt i32 %inc, %6
  br i1 %cmp, label %for.body, label %delete.end14, !llvm.loop !7

delete.end14:                                     ; preds = %for.inc, %delete.end
  %.lcssa = phi ptr [ %2, %delete.end ], [ %5, %for.inc ]
  %vtable12 = load ptr, ptr %.lcssa, align 8
  %vfn13 = getelementptr inbounds i8, ptr %vtable12, i64 8
  %7 = load ptr, ptr %vfn13, align 8
  tail call void %7(ptr noundef nonnull align 8 dereferenceable(40) %.lcssa) #11
  store ptr null, ptr %fSets, align 8
  %fSets8 = getelementptr inbounds i8, ptr %this, i64 112
  %8 = load ptr, ptr %fSets8, align 8
  %isnull16 = icmp eq ptr %8, null
  br i1 %isnull16, label %delete.end18, label %delete.notnull17

delete.notnull17:                                 ; preds = %delete.end14
  tail call void @_ZN6icu_757UMemorydaEPv(ptr noundef nonnull %8) #11
  br label %delete.end18

delete.end18:                                     ; preds = %delete.notnull17, %delete.end14
  store ptr null, ptr %fSets8, align 8
  %fGroupMap = getelementptr inbounds i8, ptr %this, i64 136
  %9 = load ptr, ptr %fGroupMap, align 8
  %isnull20 = icmp eq ptr %9, null
  br i1 %isnull20, label %delete.end24, label %delete.notnull21

delete.notnull21:                                 ; preds = %delete.end18
  %vtable22 = load ptr, ptr %9, align 8
  %vfn23 = getelementptr inbounds i8, ptr %vtable22, i64 8
  %10 = load ptr, ptr %vfn23, align 8
  tail call void %10(ptr noundef nonnull align 8 dereferenceable(32) %9) #11
  br label %delete.end24

delete.end24:                                     ; preds = %delete.notnull21, %delete.end18
  store ptr null, ptr %fGroupMap, align 8
  %fInitialChars = getelementptr inbounds i8, ptr %this, i64 160
  %11 = load ptr, ptr %fInitialChars, align 8
  %isnull26 = icmp eq ptr %11, null
  br i1 %isnull26, label %delete.end28, label %delete.notnull27

delete.notnull27:                                 ; preds = %delete.end24
  tail call void @_ZN6icu_7510UnicodeSetD1Ev(ptr noundef nonnull align 8 dereferenceable(200) %11) #11
  tail call void @_ZN6icu_757UMemorydlEPv(ptr noundef nonnull %11) #11
  br label %delete.end28

delete.end28:                                     ; preds = %delete.notnull27, %delete.end24
  store ptr null, ptr %fInitialChars, align 8
  %fInitialChars8 = getelementptr inbounds i8, ptr %this, i64 176
  %12 = load ptr, ptr %fInitialChars8, align 8
  %isnull30 = icmp eq ptr %12, null
  br i1 %isnull30, label %delete.end32, label %delete.notnull31

delete.notnull31:                                 ; preds = %delete.end28
  tail call void @_ZN6icu_757UMemorydlEPv(ptr noundef nonnull %12) #11
  br label %delete.end32

delete.end32:                                     ; preds = %delete.notnull31, %delete.end28
  store ptr null, ptr %fInitialChars8, align 8
  %fPattern = getelementptr inbounds i8, ptr %this, i64 8
  %13 = load ptr, ptr %fPattern, align 8
  %cmp34.not = icmp eq ptr %13, null
  br i1 %cmp34.not, label %if.end39, label %if.then35

if.then35:                                        ; preds = %delete.end32
  %call37 = tail call ptr @utext_close_75(ptr noundef nonnull %13)
  store ptr null, ptr %fPattern, align 8
  br label %if.end39

if.end39:                                         ; preds = %if.then35, %delete.end32
  %fPatternString = getelementptr inbounds i8, ptr %this, i64 16
  %14 = load ptr, ptr %fPatternString, align 8
  %cmp40.not = icmp eq ptr %14, null
  br i1 %cmp40.not, label %if.end49, label %delete.notnull44

delete.notnull44:                                 ; preds = %if.end39
  %vtable45 = load ptr, ptr %14, align 8
  %vfn46 = getelementptr inbounds i8, ptr %vtable45, i64 8
  %15 = load ptr, ptr %vfn46, align 8
  tail call void %15(ptr noundef nonnull align 8 dereferenceable(64) %14) #11
  store ptr null, ptr %fPatternString, align 8
  br label %if.end49

if.end49:                                         ; preds = %delete.notnull44, %if.end39
  %fNamedCaptureMap = getelementptr inbounds i8, ptr %this, i64 192
  %16 = load ptr, ptr %fNamedCaptureMap, align 8
  %cmp50.not = icmp eq ptr %16, null
  br i1 %cmp50.not, label %if.end54, label %if.then51

if.then51:                                        ; preds = %if.end49
  tail call void @uhash_close_75(ptr noundef nonnull %16)
  store ptr null, ptr %fNamedCaptureMap, align 8
  br label %if.end54

if.end54:                                         ; preds = %if.then51, %if.end49
  ret void
}